target datalayout = "e-m:e-p270:32:32-p271:32:32-p272:64:64-i64:64-i128:128-f80:128-n8:16:32:64-S128"
target triple = "x86_64-pc-linux-gnu"

; Function Attrs: inlinehint nounwind uwtable
define internal i32 @value_barrier_32(i32 noundef %0) #2 {
  %2 = alloca i32, align 4
  %3 = alloca i32, align 4
  store i32 %0, ptr %2, align 4, !tbaa !3
  call void @llvm.lifetime.start.p0(i64 4, ptr %3) #3
  %4 = load i32, ptr %2, align 4, !tbaa !3
  %5 = call i32 asm "", "=r,0,~{dirflag},~{fpsr},~{flags}"(i32 %4) #4, !srcloc !11
  store i32 %5, ptr %3, align 4, !tbaa !3
  %6 = load i32, ptr %3, align 4, !tbaa !3
  call void @llvm.lifetime.end.p0(i64 4, ptr %3) #3
  ret i32 %6
}

; Function Attrs: inlinehint nounwind uwtable
define internal i32 @constant_time_msb_32(i32 noundef %0) #2 {
  %2 = alloca i32, align 4
  store i32 %0, ptr %2, align 4, !tbaa !3
  %3 = load i32, ptr %2, align 4, !tbaa !3
  %4 = lshr i32 %3, 31
  %5 = sub i32 0, %4
  ret i32 %5
}

; Function Attrs: inlinehint nounwind uwtable
define internal i32 @constant_time_select_32(i32 noundef %0, i32 noundef %1, i32 noundef %2) #2 {
  %4 = alloca i32, align 4
  %5 = alloca i32, align 4
  %6 = alloca i32, align 4
  store i32 %0, ptr %4, align 4, !tbaa !3
  store i32 %1, ptr %5, align 4, !tbaa !3
  store i32 %2, ptr %6, align 4, !tbaa !3
  %7 = load i32, ptr %4, align 4, !tbaa !3
  %8 = call i32 @value_barrier_32(i32 noundef %7)
  %9 = load i32, ptr %5, align 4, !tbaa !3
  %10 = and i32 %8, %9
  %11 = load i32, ptr %4, align 4, !tbaa !3
  %12 = xor i32 %11, -1
  %13 = call i32 @value_barrier_32(i32 noundef %12)
  %14 = load i32, ptr %6, align 4, !tbaa !3
  %15 = and i32 %13, %14
  %16 = or i32 %10, %15
  ret i32 %16
}

; Function Attrs: inlinehint nounwind uwtable
define internal i32 @constant_time_lt_32(i32 noundef %0, i32 noundef %1) #2 {
  %3 = alloca i32, align 4
  %4 = alloca i32, align 4
  store i32 %0, ptr %3, align 4, !tbaa !3
  store i32 %1, ptr %4, align 4, !tbaa !3
  %5 = load i32, ptr %3, align 4, !tbaa !3
  %6 = load i32, ptr %3, align 4, !tbaa !3
  %7 = load i32, ptr %4, align 4, !tbaa !3
  %8 = xor i32 %6, %7
  %9 = load i32, ptr %3, align 4, !tbaa !3
  %10 = load i32, ptr %4, align 4, !tbaa !3
  %11 = sub i32 %9, %10
  %12 = load i32, ptr %4, align 4, !tbaa !3
  %13 = xor i32 %11, %12
  %14 = or i32 %8, %13
  %15 = xor i32 %5, %14
  %16 = call i32 @constant_time_msb_32(i32 noundef %15)
  ret i32 %16
}

; Function Attrs: nounwind uwtable
define i32 @ossl_ml_dsa_key_compress_high_bits(i32 noundef %0, i32 noundef %1) #0 {
  %3 = alloca i32, align 4
  %4 = alloca i32, align 4
  %5 = alloca i32, align 4
  %6 = alloca i32, align 4
  %7 = alloca i32, align 4
  store i32 %0, ptr %4, align 4, !tbaa !3
  store i32 %1, ptr %5, align 4, !tbaa !3
  call void @llvm.lifetime.start.p0(i64 4, ptr %6) #3
  %8 = load i32, ptr %4, align 4, !tbaa !3
  %9 = add i32 %8, 127
  %10 = lshr i32 %9, 7
  store i32 %10, ptr %6, align 4, !tbaa !3
  %11 = load i32, ptr %5, align 4, !tbaa !3
  %12 = icmp eq i32 %11, 261888
  br i1 %12, label %13, label %21

13:                                               ; preds = %2
  %14 = load i32, ptr %6, align 4, !tbaa !3
  %15 = mul nsw i32 %14, 1025
  %16 = add nsw i32 %15, 2097152
  %17 = ashr i32 %16, 22
  store i32 %17, ptr %6, align 4, !tbaa !3
  %18 = load i32, ptr %6, align 4, !tbaa !3
  %19 = and i32 %18, 15
  store i32 %19, ptr %6, align 4, !tbaa !3
  %20 = load i32, ptr %6, align 4, !tbaa !3
  store i32 %20, ptr %3, align 4
  store i32 1, ptr %7, align 4
  br label %34

21:                                               ; preds = %2
  %22 = load i32, ptr %6, align 4, !tbaa !3
  %23 = mul nsw i32 %22, 11275
  %24 = add nsw i32 %23, 8388608
  %25 = ashr i32 %24, 24
  store i32 %25, ptr %6, align 4, !tbaa !3
  %26 = load i32, ptr %6, align 4, !tbaa !3
  %27 = sub nsw i32 43, %26
  %28 = ashr i32 %27, 31
  %29 = load i32, ptr %6, align 4, !tbaa !3
  %30 = and i32 %28, %29
  %31 = load i32, ptr %6, align 4, !tbaa !3
  %32 = xor i32 %31, %30
  store i32 %32, ptr %6, align 4, !tbaa !3
  %33 = load i32, ptr %6, align 4, !tbaa !3
  store i32 %33, ptr %3, align 4
  store i32 1, ptr %7, align 4
  br label %34

34:                                               ; preds = %21, %13
  call void @llvm.lifetime.end.p0(i64 4, ptr %6) #3
  %35 = load i32, ptr %3, align 4
  ret i32 %35
}

; Function Attrs: inlinehint nounwind uwtable
define internal i32 @reduce_once(i32 noundef %0) #2 {
  %2 = alloca i32, align 4
  store i32 %0, ptr %2, align 4, !tbaa !3
  %3 = load i32, ptr %2, align 4, !tbaa !3
  %4 = call i32 @constant_time_lt_32(i32 noundef %3, i32 noundef 8380417)
  %5 = load i32, ptr %2, align 4, !tbaa !3
  %6 = load i32, ptr %2, align 4, !tbaa !3
  %7 = sub i32 %6, 8380417
  %8 = call i32 @constant_time_select_32(i32 noundef %4, i32 noundef %5, i32 noundef %7)
  ret i32 %8
}

; Function Attrs: inlinehint nounwind uwtable
define internal i32 @mod_sub(i32 noundef %0, i32 noundef %1) #2 {
  %3 = alloca i32, align 4
  %4 = alloca i32, align 4
  store i32 %0, ptr %3, align 4, !tbaa !3
  store i32 %1, ptr %4, align 4, !tbaa !3
  %5 = load i32, ptr %3, align 4, !tbaa !3
  %6 = add i32 8380417, %5
  %7 = load i32, ptr %4, align 4, !tbaa !3
  %8 = sub i32 %6, %7
  %9 = call i32 @reduce_once(i32 noundef %8)
  ret i32 %9
}

; Function Attrs: nounwind uwtable
define i32 @ossl_ml_dsa_key_compress_make_hint(i32 noundef %0, i32 noundef %1, i32 noundef %2, i32 noundef %3) #0 {
  %5 = alloca i32, align 4
  %6 = alloca i32, align 4
  %7 = alloca i32, align 4
  %8 = alloca i32, align 4
  %9 = alloca i32, align 4
  %10 = alloca i32, align 4
  store i32 %0, ptr %5, align 4, !tbaa !3
  store i32 %1, ptr %6, align 4, !tbaa !3
  store i32 %2, ptr %7, align 4, !tbaa !3
  store i32 %3, ptr %8, align 4, !tbaa !3
  call void @llvm.lifetime.start.p0(i64 4, ptr %9) #3
  %11 = load i32, ptr %8, align 4, !tbaa !3
  %12 = load i32, ptr %6, align 4, !tbaa !3
  %13 = call i32 @mod_sub(i32 noundef %11, i32 noundef %12)
  store i32 %13, ptr %9, align 4, !tbaa !3
  call void @llvm.lifetime.start.p0(i64 4, ptr %10) #3
  %14 = load i32, ptr %9, align 4, !tbaa !3
  %15 = load i32, ptr %5, align 4, !tbaa !3
  %16 = add i32 %14, %15
  %17 = call i32 @reduce_once(i32 noundef %16)
  store i32 %17, ptr %10, align 4, !tbaa !3
  %18 = load i32, ptr %10, align 4, !tbaa !3
  %19 = load i32, ptr %7, align 4, !tbaa !3
  %20 = call i32 @ossl_ml_dsa_key_compress_high_bits(i32 noundef %18, i32 noundef %19)
  %21 = load i32, ptr %9, align 4, !tbaa !3
  %22 = load i32, ptr %7, align 4, !tbaa !3
  %23 = call i32 @ossl_ml_dsa_key_compress_high_bits(i32 noundef %21, i32 noundef %22)
  %24 = icmp ne i32 %20, %23
  %25 = zext i1 %24 to i32
  call void @llvm.lifetime.end.p0(i64 4, ptr %10) #3
  call void @llvm.lifetime.end.p0(i64 4, ptr %9) #3
  ret i32 %25
}