; Function Attrs: nofree nosync nounwind memory(none) uwtable
define range(i32 0, 2) i32 @ossl_ml_dsa_key_compress_make_hint(i32 noundef %0, i32 noundef %1, i32 noundef %2, i32 noundef %3) local_unnamed_addr #3 {
  %reass.sub = sub i32 %3, %1
  %5 = add i32 %reass.sub, 8380417
  %6 = sub i32 -8380418, %reass.sub
  %7 = and i32 %reass.sub, %6
  %.neg.i.i.i.i = ashr i32 %7, 31
  %8 = tail call i32 asm "", "=r,0,~{dirflag},~{fpsr},~{flags}"(i32 range(i32 -1, 1) %.neg.i.i.i.i) #4, !srcloc !7
  %9 = and i32 %8, %5
  %10 = xor i32 %.neg.i.i.i.i, -1
  %11 = tail call i32 asm "", "=r,0,~{dirflag},~{fpsr},~{flags}"(i32 range(i32 -1, 1) %10) #4, !srcloc !7
  %12 = and i32 %11, %reass.sub
  %13 = or i32 %12, %9
  %14 = add i32 %13, %0
  %15 = add i32 %14, -8380417
  %16 = xor i32 %14, -1
  %17 = and i32 %15, %16
  %.neg.i.i.i = ashr i32 %17, 31
  %18 = tail call i32 asm "", "=r,0,~{dirflag},~{fpsr},~{flags}"(i32 range(i32 -1, 1) %.neg.i.i.i) #4, !srcloc !7
  %19 = and i32 %14, %18
  %20 = xor i32 %.neg.i.i.i, -1
  %21 = tail call i32 asm "", "=r,0,~{dirflag},~{fpsr},~{flags}"(i32 range(i32 -1, 1) %20) #4, !srcloc !7
  %22 = and i32 %15, %21
  %23 = or i32 %22, %19
  %24 = add i32 %23, 127
  %25 = lshr i32 %24, 7
  %26 = icmp eq i32 %2, 261888
  br i1 %26, label %27, label %38

27:                                               ; preds = %4
  %28 = mul nuw nsw i32 %25, 1025
  %29 = add nuw nsw i32 %28, 2097152
  %30 = lshr i32 %29, 22
  %31 = and i32 %30, 15
  %32 = add i32 %13, 127
  %33 = lshr i32 %32, 7
  %34 = mul nuw nsw i32 %33, 1025
  %35 = add nuw nsw i32 %34, 2097152
  %36 = lshr i32 %35, 22
  %37 = and i32 %36, 15
  br label %ossl_ml_dsa_key_compress_high_bits.exit9

38:                                               ; preds = %4
  %39 = mul nuw nsw i32 %25, 11275
  %40 = add nuw nsw i32 %39, 8388608
  %41 = lshr i32 %40, 24
  %42 = icmp ugt i32 %24, 8285311
  %43 = select i1 %42, i32 0, i32 %41
  %44 = add i32 %13, 127
  %45 = lshr i32 %44, 7
  %46 = mul nuw nsw i32 %45, 11275
  %47 = add nuw nsw i32 %46, 8388608
  %48 = lshr i32 %47, 24
  %49 = icmp ugt i32 %44, 8285311
  %50 = select i1 %49, i32 0, i32 %48
  br label %ossl_ml_dsa_key_compress_high_bits.exit9

ossl_ml_dsa_key_compress_high_bits.exit9:         ; preds = %27, %38
  %.0.i11 = phi i32 [ %31, %27 ], [ %43, %38 ]
  %.0.i8 = phi i32 [ %37, %27 ], [ %50, %38 ]
  %51 = icmp ne i32 %.0.i11, %.0.i8
  %52 = zext i1 %51 to i32
  ret i32 %52
}